; ModuleID = 'source-C-CXX/32/2999.c'
source_filename = "source-C-CXX/32/2999.c"
target datalayout = "e-m:e-p270:32:32-p271:32:32-p272:64:64-i64:64-f80:128-n8:16:32:64-S128"
target triple = "x86_64-pc-linux-gnu"

%struct._IO_FILE = type { i32, i8*, i8*, i8*, i8*, i8*, i8*, i8*, i8*, i8*, i8*, i8*, %struct._IO_marker*, %struct._IO_FILE*, i32, i32, i64, i16, i8, [1 x i8], i8*, i64, %struct._IO_codecvt*, %struct._IO_wide_data*, %struct._IO_FILE*, i8*, i64, i32, [20 x i8] }
%struct._IO_marker = type opaque
%struct._IO_codecvt = type opaque
%struct._IO_wide_data = type opaque

@.str = private unnamed_addr constant [3 x i8] c"%d\00", align 1
@stdin = external local_unnamed_addr global %struct._IO_FILE*, align 8

; Function Attrs: nofree nounwind sspstrong uwtable
define dso_local i32 @main() local_unnamed_addr #0 {
  %1 = alloca i32, align 4
  %2 = bitcast i32* %1 to i8*
  call void @llvm.lifetime.start.p0i8(i64 4, i8* nonnull %2) #4
  %3 = call i32 (i8*, ...) @__isoc99_scanf(i8* getelementptr inbounds ([3 x i8], [3 x i8]* @.str, i64 0, i64 0), i32* nonnull %1)
  %4 = load %struct._IO_FILE*, %struct._IO_FILE** @stdin, align 8, !tbaa !5
  %5 = call i32 @getc(%struct._IO_FILE* %4) #4
  %6 = load i32, i32* %1, align 4, !tbaa !9
  %7 = icmp sgt i32 %6, 0
  br i1 %7, label %8, label %26

8:                                                ; preds = %0, %17
  %9 = phi i32 [ %19, %17 ], [ 0, %0 ]
  br label %10

10:                                               ; preds = %25, %8
  %11 = load %struct._IO_FILE*, %struct._IO_FILE** @stdin, align 8, !tbaa !5
  %12 = call i32 @getc(%struct._IO_FILE* %11) #4
  %13 = shl i32 %12, 24
  switch i32 %13, label %25 [
    i32 1090519040, label %22
    i32 1124073472, label %14
    i32 1409286144, label %15
    i32 1191182336, label %16
    i32 167772160, label %17
  ]

14:                                               ; preds = %10
  br label %22

15:                                               ; preds = %10
  br label %22

16:                                               ; preds = %10
  br label %22

17:                                               ; preds = %10
  %18 = call i32 @putchar(i32 10)
  %19 = add nuw nsw i32 %9, 1
  %20 = load i32, i32* %1, align 4, !tbaa !9
  %21 = icmp slt i32 %19, %20
  br i1 %21, label %8, label %26, !llvm.loop !11

22:                                               ; preds = %10, %14, %15, %16
  %23 = phi i32 [ 67, %16 ], [ 65, %15 ], [ 71, %14 ], [ 84, %10 ]
  %24 = call i32 @putchar(i32 %23)
  br label %25

25:                                               ; preds = %22, %10
  br label %10

26:                                               ; preds = %17, %0
  call void @llvm.lifetime.end.p0i8(i64 4, i8* nonnull %2) #4
  ret i32 0
}

; Function Attrs: argmemonly mustprogress nofree nosync nounwind willreturn
declare void @llvm.lifetime.start.p0i8(i64 immarg, i8* nocapture) #1

; Function Attrs: nofree nounwind
declare noundef i32 @__isoc99_scanf(i8* nocapture noundef readonly, ...) local_unnamed_addr #2

; Function Attrs: argmemonly mustprogress nofree nosync nounwind willreturn
declare void @llvm.lifetime.end.p0i8(i64 immarg, i8* nocapture) #1

; Function Attrs: nofree nounwind
declare noundef i32 @getc(%struct._IO_FILE* nocapture noundef) local_unnamed_addr #2

; Function Attrs: nofree nounwind
declare noundef i32 @putchar(i32 noundef) local_unnamed_addr #3


!llvm.module.flags = !{!0, !1, !2, !3}
!llvm.ident = !{!4}

!0 = !{i32 1, !"wchar_size", i32 4}
!1 = !{i32 7, !"PIC Level", i32 2}
!2 = !{i32 7, !"PIE Level", i32 2}
!3 = !{i32 7, !"uwtable", i32 1}
!4 = !{!"clang version 13.0.0"}
!5 = !{!6, !6, i64 0}
!6 = !{!"any pointer", !7, i64 0}
!7 = !{!"omnipotent char", !8, i64 0}
!8 = !{!"Simple C/C++ TBAA"}
!9 = !{!10, !10, i64 0}
!10 = !{!"int", !7, i64 0}
!11 = distinct !{!11, !12}
!12 = !{!"llvm.loop.mustprogress"}
